target datalayout = "e-m:e-p270:32:32-p271:32:32-p272:64:64-i64:64-i128:128-f80:128-n8:16:32:64-S128"
target triple = "x86_64-pc-linux-gnu"

%struct._zend_iconv_globals = type { ptr, ptr, ptr }
%struct._zend_executor_globals = type { %struct._zval_struct, %struct._zval_struct, [32 x ptr], ptr, ptr, %struct._zend_array, %struct._zend_array, ptr, i32, i8, %struct._zval_struct, i32, ptr, ptr, ptr, ptr, ptr, ptr, i64, ptr, ptr, i32, ptr, i32, i64, i32, i32, i32, i8, i8, %struct.zend_atomic_bool_s, %struct.zend_atomic_bool_s, ptr, i64, ptr, ptr, %struct._zend_array, %struct._zend_array, i32, i8, %struct._zval_struct, %struct._zval_struct, %struct._zend_stack, %struct._zend_stack, %struct._zend_stack, ptr, i32, i32, i64, ptr, ptr, ptr, %struct._zend_objects_store, %struct._zend_lazy_objects_store, ptr, ptr, ptr, [3 x %struct._zend_op], ptr, i8, i8, i64, i32, i32, ptr, [16 x %struct._HashTableIterator], ptr, %union._zend_function, %struct._zend_op, %struct._zend_array, i64, %struct.zend_get_gc_buffer, ptr, ptr, ptr, i64, i8, i32, ptr, ptr, i64, %struct._zend_call_stack, i64, i64, %struct._zend_strtod_state, [6 x ptr] }
%struct.zend_atomic_bool_s = type { i8 }
%struct._zval_struct = type { %union._zend_value, %union.anon, %union.anon.2 }
%union._zend_value = type { i64 }
%union.anon = type { i32 }
%union.anon.2 = type { i32 }
%struct._zend_stack = type { i32, i32, i32, ptr }
%struct._zend_objects_store = type { ptr, i32, i32, i32 }
%struct._zend_lazy_objects_store = type { %struct._zend_array }
%struct._HashTableIterator = type { ptr, i32, i32 }
%union._zend_function = type { %struct._zend_op_array }
%struct._zend_op_array = type { i8, [3 x i8], i32, ptr, ptr, ptr, i32, i32, ptr, ptr, ptr, ptr, i32, ptr, i32, i32, i32, ptr, ptr, ptr, ptr, ptr, i32, i32, ptr, ptr, ptr, i32, i32, i32, i32, ptr, ptr, [6 x ptr] }
%struct._zend_op = type { ptr, %union._znode_op, %union._znode_op, %union._znode_op, i32, i32, i8, i8, i8, i8 }
%union._znode_op = type { i32 }
%struct._zend_array = type { %struct._zend_refcounted_h, %union.anon.4, i32, %union.anon.6, i32, i32, i32, i32, i64, ptr }
%struct._zend_refcounted_h = type { i32, %union.anon.3 }
%union.anon.3 = type { i32 }
%union.anon.4 = type { i32 }
%union.anon.6 = type { ptr }
%struct.zend_get_gc_buffer = type { ptr, ptr, ptr }
%struct._zend_call_stack = type { ptr, i64 }
%struct._zend_strtod_state = type { [8 x ptr], ptr, ptr }
%struct._zend_string = type { %struct._zend_refcounted_h, i64, i64, [1 x i8] }
%struct._zend_execute_data = type { ptr, ptr, ptr, ptr, %struct._zval_struct, ptr, ptr, ptr, ptr }

@iconv_globals = hidden global %struct._zend_iconv_globals zeroinitializer, align 8
@.str.10 = private unnamed_addr constant [5 x i8] c"S|s!\00", align 1
@executor_globals = external global %struct._zend_executor_globals, align 8
@.str.11 = private unnamed_addr constant [71 x i8] c"Encoding parameter exceeds the maximum allowed length of %d characters\00", align 1
@_generic_superset_name = internal constant [8 x i8] c"UCS-4LE\00", align 1

; Function Attrs: nounwind uwtable
define internal ptr @get_internal_encoding() #0 {
  %1 = alloca ptr, align 8
  %2 = load ptr, ptr getelementptr inbounds nuw (%struct._zend_iconv_globals, ptr @iconv_globals, i32 0, i32 1), align 8, !tbaa !20
  %3 = icmp ne ptr %2, null
  br i1 %3, label %4, label %12

4:                                                ; preds = %0
  %5 = load ptr, ptr getelementptr inbounds nuw (%struct._zend_iconv_globals, ptr @iconv_globals, i32 0, i32 1), align 8, !tbaa !20
  %6 = getelementptr inbounds i8, ptr %5, i64 0
  %7 = load i8, ptr %6, align 1, !tbaa !13
  %8 = sext i8 %7 to i32
  %9 = icmp ne i32 %8, 0
  br i1 %9, label %10, label %12

10:                                               ; preds = %4
  %11 = load ptr, ptr getelementptr inbounds nuw (%struct._zend_iconv_globals, ptr @iconv_globals, i32 0, i32 1), align 8, !tbaa !20
  store ptr %11, ptr %1, align 8
  br label %14

12:                                               ; preds = %4, %0
  %13 = call ptr @php_get_internal_encoding()
  store ptr %13, ptr %1, align 8
  br label %14

14:                                               ; preds = %12, %10
  %15 = load ptr, ptr %1, align 8
  ret ptr %15
}

; Function Attrs: nounwind uwtable
define hidden void @zif_iconv_strlen(ptr noundef %0, ptr noundef %1) #0 {
  %3 = alloca ptr, align 8
  %4 = alloca ptr, align 8
  %5 = alloca ptr, align 8
  %6 = alloca i64, align 8
  %7 = alloca ptr, align 8
  %8 = alloca i32, align 4
  %9 = alloca i64, align 8
  %10 = alloca i32, align 4
  %11 = alloca ptr, align 8
  store ptr %0, ptr %3, align 8, !tbaa !39
  store ptr %1, ptr %4, align 8, !tbaa !11
  call void @llvm.lifetime.start.p0(i64 8, ptr %5) #15
  store ptr null, ptr %5, align 8, !tbaa !23
  call void @llvm.lifetime.start.p0(i64 8, ptr %6) #15
  call void @llvm.lifetime.start.p0(i64 8, ptr %7) #15
  call void @llvm.lifetime.start.p0(i64 4, ptr %8) #15
  call void @llvm.lifetime.start.p0(i64 8, ptr %9) #15
  %12 = load ptr, ptr %3, align 8, !tbaa !39
  %13 = getelementptr inbounds nuw %struct._zend_execute_data, ptr %12, i32 0, i32 4
  %14 = getelementptr inbounds nuw %struct._zval_struct, ptr %13, i32 0, i32 2
  %15 = load i32, ptr %14, align 4, !tbaa !13
  %16 = call i32 (i32, ptr, ...) @zend_parse_parameters(i32 noundef %15, ptr noundef @.str.10, ptr noundef %7, ptr noundef %5, ptr noundef %6)
  %17 = icmp eq i32 %16, -1
  br i1 %17, label %18, label %24

18:                                               ; preds = %2
  br label %19

19:                                               ; preds = %18
  %20 = load ptr, ptr getelementptr inbounds nuw (%struct._zend_executor_globals, ptr @executor_globals, i32 0, i32 54), align 8, !tbaa !41
  %21 = icmp ne ptr %20, null
  call void @llvm.assume(i1 %21)
  store i32 1, ptr %10, align 4
  br label %72

22:                                               ; No predecessors!
  br label %23

23:                                               ; preds = %22
  br label %24

24:                                               ; preds = %23, %2
  %25 = load ptr, ptr %5, align 8, !tbaa !23
  %26 = icmp eq ptr %25, null
  br i1 %26, label %27, label %29

27:                                               ; preds = %24
  %28 = call ptr @get_internal_encoding()
  store ptr %28, ptr %5, align 8, !tbaa !23
  br label %42

29:                                               ; preds = %24
  %30 = load i64, ptr %6, align 8, !tbaa !24
  %31 = icmp uge i64 %30, 64
  br i1 %31, label %32, label %41

32:                                               ; preds = %29
  call void (ptr, i32, ptr, ...) @php_error_docref(ptr noundef null, i32 noundef 2, ptr noundef @.str.11, i32 noundef 64)
  br label %33

33:                                               ; preds = %32
  br label %34

34:                                               ; preds = %33
  %35 = load ptr, ptr %4, align 8, !tbaa !11
  %36 = getelementptr inbounds nuw %struct._zval_struct, ptr %35, i32 0, i32 1
  store i32 2, ptr %36, align 8, !tbaa !13
  br label %37

37:                                               ; preds = %34
  br label %38

38:                                               ; preds = %37
  store i32 1, ptr %10, align 4
  br label %72

39:                                               ; No predecessors!
  br label %40

40:                                               ; preds = %39
  br label %41

41:                                               ; preds = %40, %29
  br label %42

42:                                               ; preds = %41, %27
  %43 = load ptr, ptr %7, align 8, !tbaa !28
  %44 = getelementptr inbounds nuw %struct._zend_string, ptr %43, i32 0, i32 3
  %45 = getelementptr inbounds [1 x i8], ptr %44, i64 0, i64 0
  %46 = load ptr, ptr %7, align 8, !tbaa !28
  %47 = getelementptr inbounds nuw %struct._zend_string, ptr %46, i32 0, i32 2
  %48 = load i64, ptr %47, align 8, !tbaa !31
  %49 = load ptr, ptr %5, align 8, !tbaa !23
  %50 = call i32 @_php_iconv_strlen(ptr noundef %9, ptr noundef %45, i64 noundef %48, ptr noundef %49)
  store i32 %50, ptr %8, align 4, !tbaa !4
  %51 = load i32, ptr %8, align 4, !tbaa !4
  %52 = load ptr, ptr %5, align 8, !tbaa !23
  call void @_php_iconv_show_error(i32 noundef %51, ptr noundef @_generic_superset_name, ptr noundef %52)
  %53 = load i32, ptr %8, align 4, !tbaa !4
  %54 = icmp eq i32 %53, 0
  br i1 %54, label %55, label %65

55:                                               ; preds = %42
  br label %56

56:                                               ; preds = %55
  call void @llvm.lifetime.start.p0(i64 8, ptr %11) #15
  %57 = load ptr, ptr %4, align 8, !tbaa !11
  store ptr %57, ptr %11, align 8, !tbaa !11
  %58 = load i64, ptr %9, align 8, !tbaa !24
  %59 = load ptr, ptr %11, align 8, !tbaa !11
  %60 = getelementptr inbounds nuw %struct._zval_struct, ptr %59, i32 0, i32 0
  store i64 %58, ptr %60, align 8, !tbaa !13
  %61 = load ptr, ptr %11, align 8, !tbaa !11
  %62 = getelementptr inbounds nuw %struct._zval_struct, ptr %61, i32 0, i32 1
  store i32 4, ptr %62, align 8, !tbaa !13
  call void @llvm.lifetime.end.p0(i64 8, ptr %11) #15
  br label %63

63:                                               ; preds = %56
  br label %64

64:                                               ; preds = %63
  br label %71

65:                                               ; preds = %42
  br label %66

66:                                               ; preds = %65
  %67 = load ptr, ptr %4, align 8, !tbaa !11
  %68 = getelementptr inbounds nuw %struct._zval_struct, ptr %67, i32 0, i32 1
  store i32 2, ptr %68, align 8, !tbaa !13
  br label %69

69:                                               ; preds = %66
  br label %70

70:                                               ; preds = %69
  br label %71

71:                                               ; preds = %70, %64
  store i32 0, ptr %10, align 4
  br label %72

72:                                               ; preds = %71, %38, %19
  call void @llvm.lifetime.end.p0(i64 8, ptr %9) #15
  call void @llvm.lifetime.end.p0(i64 4, ptr %8) #15
  call void @llvm.lifetime.end.p0(i64 8, ptr %7) #15
  call void @llvm.lifetime.end.p0(i64 8, ptr %6) #15
  call void @llvm.lifetime.end.p0(i64 8, ptr %5) #15
  %73 = load i32, ptr %10, align 4
  switch i32 %73, label %75 [
    i32 0, label %74
    i32 1, label %74
  ]

74:                                               ; preds = %72, %72
  ret void

75:                                               ; preds = %72
  unreachable
}