; Function Attrs: nounwind uwtable
define hidden void @zif_iconv_strlen(ptr noundef readonly captures(none) %0, ptr noundef writeonly captures(none) %1) #0 {
  %3 = alloca ptr, align 8
  %4 = alloca i64, align 8
  %5 = alloca ptr, align 8
  %6 = alloca i64, align 8
  call void @llvm.lifetime.start.p0(i64 8, ptr nonnull %3) #16
  store ptr null, ptr %3, align 8, !tbaa !7
  call void @llvm.lifetime.start.p0(i64 8, ptr nonnull %4) #16
  call void @llvm.lifetime.start.p0(i64 8, ptr nonnull %5) #16
  call void @llvm.lifetime.start.p0(i64 8, ptr nonnull %6) #16
  %7 = getelementptr inbounds nuw i8, ptr %0, i64 44
  %8 = load i32, ptr %7, align 4, !tbaa !4
  %9 = call i32 (i32, ptr, ...) @zend_parse_parameters(i32 noundef %8, ptr noundef nonnull @.str.10, ptr noundef nonnull %5, ptr noundef nonnull %3, ptr noundef nonnull %4) #16
  %10 = icmp eq i32 %9, -1
  br i1 %10, label %11, label %14

11:                                               ; preds = %2
  %12 = load ptr, ptr getelementptr inbounds nuw (i8, ptr @executor_globals, i64 960), align 8, !tbaa !22
  %13 = icmp ne ptr %12, null
  call void @llvm.assume(i1 %13)
  br label %42

14:                                               ; preds = %2
  %15 = load ptr, ptr %3, align 8, !tbaa !7
  %16 = icmp eq ptr %15, null
  br i1 %16, label %17, label %23

17:                                               ; preds = %14
  %18 = load ptr, ptr getelementptr inbounds nuw (i8, ptr @iconv_globals, i64 8), align 8, !tbaa !52
  %.not.i = icmp eq ptr %18, null
  br i1 %.not.i, label %21, label %19

19:                                               ; preds = %17
  %20 = load i8, ptr %18, align 1, !tbaa !4
  %.not2.i = icmp eq i8 %20, 0
  br i1 %.not2.i, label %21, label %get_internal_encoding.exit

21:                                               ; preds = %19, %17
  %22 = call ptr @php_get_internal_encoding() #16
  br label %get_internal_encoding.exit

get_internal_encoding.exit:                       ; preds = %19, %21
  %.0.i = phi ptr [ %22, %21 ], [ %18, %19 ]
  store ptr %.0.i, ptr %3, align 8, !tbaa !7
  br label %28

23:                                               ; preds = %14
  %24 = load i64, ptr %4, align 8, !tbaa !14
  %25 = icmp ugt i64 %24, 63
  br i1 %25, label %26, label %28

26:                                               ; preds = %23
  call void (ptr, i32, ptr, ...) @php_error_docref(ptr noundef null, i32 noundef 2, ptr noundef nonnull @.str.11, i32 noundef 64) #16
  %27 = getelementptr inbounds nuw i8, ptr %1, i64 8
  store i32 2, ptr %27, align 8, !tbaa !4
  br label %42

28:                                               ; preds = %23, %get_internal_encoding.exit
  %29 = phi ptr [ %15, %23 ], [ %.0.i, %get_internal_encoding.exit ]
  %30 = load ptr, ptr %5, align 8, !tbaa !10
  %31 = getelementptr inbounds nuw i8, ptr %30, i64 24
  %32 = getelementptr inbounds nuw i8, ptr %30, i64 16
  %33 = load i64, ptr %32, align 8, !tbaa !20
  %34 = call fastcc i32 @_php_iconv_strlen(ptr noundef %6, ptr noundef nonnull %31, i64 noundef %33, ptr noundef %29)
  %35 = load ptr, ptr %3, align 8, !tbaa !7
  call fastcc void @_php_iconv_show_error(i32 noundef %34, ptr noundef nonnull @_generic_superset_name, ptr noundef %35)
  %36 = icmp eq i32 %34, 0
  br i1 %36, label %37, label %40

37:                                               ; preds = %28
  %38 = load i64, ptr %6, align 8, !tbaa !14
  store i64 %38, ptr %1, align 8, !tbaa !4
  %39 = getelementptr inbounds nuw i8, ptr %1, i64 8
  store i32 4, ptr %39, align 8, !tbaa !4
  br label %42

40:                                               ; preds = %28
  %41 = getelementptr inbounds nuw i8, ptr %1, i64 8
  store i32 2, ptr %41, align 8, !tbaa !4
  br label %42

42:                                               ; preds = %37, %40, %26, %11
  call void @llvm.lifetime.end.p0(i64 8, ptr nonnull %6) #16
  call void @llvm.lifetime.end.p0(i64 8, ptr nonnull %5) #16
  call void @llvm.lifetime.end.p0(i64 8, ptr nonnull %4) #16
  call void @llvm.lifetime.end.p0(i64 8, ptr nonnull %3) #16
  ret void
}